target datalayout = "e-m:e-p270:32:32-p271:32:32-p272:64:64-i64:64-i128:128-f80:128-n8:16:32:64-S128"
target triple = "x86_64-pc-linux-gnu"

%struct.crypto_ex_data_st = type { ptr, ptr }

@.str = private unnamed_addr constant [28 x i8] c"../openssl/crypto/ex_data.c\00", align 1
@__func__.CRYPTO_set_ex_data = private unnamed_addr constant [19 x i8] c"CRYPTO_set_ex_data\00", align 1

; Function Attrs: inlinehint nounwind uwtable
define internal ptr @ossl_check_void_type(ptr noundef %0) #3 {
  %2 = alloca ptr, align 8
  store ptr %0, ptr %2, align 8, !tbaa !22
  %3 = load ptr, ptr %2, align 8, !tbaa !22
  ret ptr %3
}

; Function Attrs: inlinehint nounwind uwtable
define internal ptr @ossl_check_void_sk_type(ptr noundef %0) #3 {
  %2 = alloca ptr, align 8
  store ptr %0, ptr %2, align 8, !tbaa !46
  %3 = load ptr, ptr %2, align 8, !tbaa !46
  ret ptr %3
}

; Function Attrs: inlinehint nounwind uwtable
define internal ptr @ossl_check_const_void_sk_type(ptr noundef %0) #3 {
  %2 = alloca ptr, align 8
  store ptr %0, ptr %2, align 8, !tbaa !46
  %3 = load ptr, ptr %2, align 8, !tbaa !46
  ret ptr %3
}

; Function Attrs: nounwind uwtable
define i32 @CRYPTO_set_ex_data(ptr noundef %0, i32 noundef %1, ptr noundef %2) #0 {
  %4 = alloca i32, align 4
  %5 = alloca ptr, align 8
  %6 = alloca i32, align 4
  %7 = alloca ptr, align 8
  %8 = alloca i32, align 4
  %9 = alloca i32, align 4
  store ptr %0, ptr %5, align 8, !tbaa !30
  store i32 %1, ptr %6, align 4, !tbaa !12
  store ptr %2, ptr %7, align 8, !tbaa !22
  call void @llvm.lifetime.start.p0(i64 4, ptr %8) #4
  %10 = load ptr, ptr %5, align 8, !tbaa !30
  %11 = getelementptr inbounds nuw %struct.crypto_ex_data_st, ptr %10, i32 0, i32 1
  %12 = load ptr, ptr %11, align 8, !tbaa !41
  %13 = icmp eq ptr %12, null
  br i1 %13, label %14, label %21

14:                                               ; preds = %3
  %15 = call ptr @OPENSSL_sk_new_null()
  %16 = load ptr, ptr %5, align 8, !tbaa !30
  %17 = getelementptr inbounds nuw %struct.crypto_ex_data_st, ptr %16, i32 0, i32 1
  store ptr %15, ptr %17, align 8, !tbaa !41
  %18 = icmp eq ptr %15, null
  br i1 %18, label %19, label %20

19:                                               ; preds = %14
  call void @ERR_new()
  call void @ERR_set_debug(ptr noundef @.str, i32 noundef 475, ptr noundef @__func__.CRYPTO_set_ex_data)
  call void (i32, i32, ptr, ...) @ERR_set_error(i32 noundef 15, i32 noundef 524303, ptr noundef null)
  store i32 0, ptr %4, align 4
  store i32 1, ptr %9, align 4
  br label %57

20:                                               ; preds = %14
  br label %21

21:                                               ; preds = %20, %3
  %22 = load ptr, ptr %5, align 8, !tbaa !30
  %23 = getelementptr inbounds nuw %struct.crypto_ex_data_st, ptr %22, i32 0, i32 1
  %24 = load ptr, ptr %23, align 8, !tbaa !41
  %25 = call ptr @ossl_check_const_void_sk_type(ptr noundef %24)
  %26 = call i32 @OPENSSL_sk_num(ptr noundef %25)
  store i32 %26, ptr %8, align 4, !tbaa !12
  br label %27

27:                                               ; preds = %41, %21
  %28 = load i32, ptr %8, align 4, !tbaa !12
  %29 = load i32, ptr %6, align 4, !tbaa !12
  %30 = icmp sle i32 %28, %29
  br i1 %30, label %31, label %44

31:                                               ; preds = %27
  %32 = load ptr, ptr %5, align 8, !tbaa !30
  %33 = getelementptr inbounds nuw %struct.crypto_ex_data_st, ptr %32, i32 0, i32 1
  %34 = load ptr, ptr %33, align 8, !tbaa !41
  %35 = call ptr @ossl_check_void_sk_type(ptr noundef %34)
  %36 = call ptr @ossl_check_void_type(ptr noundef null)
  %37 = call i32 @OPENSSL_sk_push(ptr noundef %35, ptr noundef %36)
  %38 = icmp ne i32 %37, 0
  br i1 %38, label %40, label %39

39:                                               ; preds = %31
  call void @ERR_new()
  call void @ERR_set_debug(ptr noundef @.str, i32 noundef 482, ptr noundef @__func__.CRYPTO_set_ex_data)
  call void (i32, i32, ptr, ...) @ERR_set_error(i32 noundef 15, i32 noundef 524303, ptr noundef null)
  store i32 0, ptr %4, align 4
  store i32 1, ptr %9, align 4
  br label %57

40:                                               ; preds = %31
  br label %41

41:                                               ; preds = %40
  %42 = load i32, ptr %8, align 4, !tbaa !12
  %43 = add nsw i32 %42, 1
  store i32 %43, ptr %8, align 4, !tbaa !12
  br label %27, !llvm.loop !47

44:                                               ; preds = %27
  %45 = load ptr, ptr %5, align 8, !tbaa !30
  %46 = getelementptr inbounds nuw %struct.crypto_ex_data_st, ptr %45, i32 0, i32 1
  %47 = load ptr, ptr %46, align 8, !tbaa !41
  %48 = call ptr @ossl_check_void_sk_type(ptr noundef %47)
  %49 = load i32, ptr %6, align 4, !tbaa !12
  %50 = load ptr, ptr %7, align 8, !tbaa !22
  %51 = call ptr @ossl_check_void_type(ptr noundef %50)
  %52 = call ptr @OPENSSL_sk_set(ptr noundef %48, i32 noundef %49, ptr noundef %51)
  %53 = load ptr, ptr %7, align 8, !tbaa !22
  %54 = icmp ne ptr %52, %53
  br i1 %54, label %55, label %56

55:                                               ; preds = %44
  call void @ERR_new()
  call void @ERR_set_debug(ptr noundef @.str, i32 noundef 488, ptr noundef @__func__.CRYPTO_set_ex_data)
  call void (i32, i32, ptr, ...) @ERR_set_error(i32 noundef 15, i32 noundef 524550, ptr noundef null)
  store i32 0, ptr %4, align 4
  store i32 1, ptr %9, align 4
  br label %57

56:                                               ; preds = %44
  store i32 1, ptr %4, align 4
  store i32 1, ptr %9, align 4
  br label %57

57:                                               ; preds = %56, %55, %39, %19
  call void @llvm.lifetime.end.p0(i64 4, ptr %8) #4
  %58 = load i32, ptr %4, align 4
  ret i32 %58
}