; Function Attrs: nounwind uwtable
define range(i32 0, 2) i32 @CRYPTO_set_ex_data(ptr noundef captures(none) %0, i32 noundef %1, ptr noundef %2) local_unnamed_addr #0 {
  %4 = getelementptr inbounds nuw i8, ptr %0, i64 8
  %5 = load ptr, ptr %4, align 8, !tbaa !26
  %6 = icmp eq ptr %5, null
  br i1 %6, label %7, label %10

7:                                                ; preds = %3
  %8 = tail call ptr @OPENSSL_sk_new_null() #9
  store ptr %8, ptr %4, align 8, !tbaa !26
  %9 = icmp eq ptr %8, null
  br i1 %9, label %.sink.split, label %10

10:                                               ; preds = %7, %3
  %11 = phi ptr [ %8, %7 ], [ %5, %3 ]
  %12 = tail call i32 @OPENSSL_sk_num(ptr noundef nonnull %11) #9
  %.not15 = icmp sgt i32 %12, %1
  br i1 %.not15, label %._crit_edge, label %.lr.ph

13:                                               ; preds = %.lr.ph
  %14 = add i32 %.016, 1
  %exitcond.not = icmp eq i32 %.016, %1
  br i1 %exitcond.not, label %._crit_edge, label %.lr.ph, !llvm.loop !34

.lr.ph:                                           ; preds = %10, %13
  %.016 = phi i32 [ %14, %13 ], [ %12, %10 ]
  %15 = load ptr, ptr %4, align 8, !tbaa !26
  %16 = tail call i32 @OPENSSL_sk_push(ptr noundef %15, ptr noundef null) #9
  %.not14 = icmp eq i32 %16, 0
  br i1 %.not14, label %.sink.split, label %13

._crit_edge:                                      ; preds = %13, %10
  %17 = load ptr, ptr %4, align 8, !tbaa !26
  %18 = tail call ptr @OPENSSL_sk_set(ptr noundef %17, i32 noundef %1, ptr noundef %2) #9
  %.not13 = icmp eq ptr %18, %2
  br i1 %.not13, label %19, label %.sink.split

.sink.split:                                      ; preds = %.lr.ph, %._crit_edge, %7
  %.sink17 = phi i32 [ 475, %7 ], [ 488, %._crit_edge ], [ 482, %.lr.ph ]
  %.sink = phi i32 [ 524303, %7 ], [ 524550, %._crit_edge ], [ 524303, %.lr.ph ]
  tail call void @ERR_new() #9
  tail call void @ERR_set_debug(ptr noundef nonnull @.str, i32 noundef %.sink17, ptr noundef nonnull @__func__.CRYPTO_set_ex_data) #9
  tail call void (i32, i32, ptr, ...) @ERR_set_error(i32 noundef 15, i32 noundef %.sink, ptr noundef null) #9
  br label %19

19:                                               ; preds = %.sink.split, %._crit_edge
  %.011 = phi i32 [ 1, %._crit_edge ], [ 0, %.sink.split ]
  ret i32 %.011
}